; Function Attrs: mustprogress nofree norecurse nosync nounwind willreturn memory(argmem: read) uwtable
define hidden noundef range(i32 -1, 2) i32 @_ZN11upolynomial7manager17eval_sign_at_zeroEjPK3mpz(ptr noundef nonnull readnone align 8 captures(none) dereferenceable(312) %0, i32 noundef %1, ptr noundef readonly captures(none) %2) local_unnamed_addr #4 align 2 {
  %4 = icmp eq i32 %1, 0
  br i1 %4, label %8, label %5

5:                                                ; preds = %3
  %6 = load i32, ptr %2, align 8, !tbaa !8
  %7 = icmp eq i32 %6, 0
  %.inv.i = icmp slt i32 %6, 1
  %..i = select i1 %.inv.i, i32 -1, i32 1
  %.0.i = select i1 %7, i32 0, i32 %..i
  br label %8

8:                                                ; preds = %3, %5
  %.0 = phi i32 [ %.0.i, %5 ], [ 0, %3 ]
  ret i32 %.0
}